target datalayout = "e-m:e-p270:32:32-p271:32:32-p272:64:64-i64:64-i128:128-f80:128-n8:16:32:64-S128"
target triple = "x86_64-pc-linux-gnu"

@hf_fmp_hostID = internal global i32 0, align 4
@hf_fmp_btime = internal global i32 0, align 4
@hf_fmp_time_sec = internal global i32 0, align 4
@hf_fmp_time_nsec = internal global i32 0, align 4
@hf_fmp_notifyPort = internal global i32 0, align 4
@hf_fmp_os_major = internal global i32 0, align 4
@hf_fmp_os_minor = internal global i32 0, align 4
@hf_fmp_os_name = internal global i32 0, align 4
@hf_fmp_os_patch = internal global i32 0, align 4
@hf_fmp_os_build = internal global i32 0, align 4
@hf_fmp_notify_protocol = internal global i32 0, align 4
@hf_fmp_cap = internal global i32 0, align 4
@ett_capabilities = internal global i32 0, align 4
@dissect_fmp_capabilities.capabilities = internal constant [4 x ptr] [ptr @hf_fmp_cap_revoke_handle_list, ptr @hf_fmp_cap_unc_names, ptr @hf_fmp_cap_cifsv2, ptr null], align 16

; Function Attrs: null_pointer_is_valid sspstrong uwtable
define internal i32 @dissect_fmp_capabilities(ptr noundef %0, i32 noundef %1, ptr noundef %2) #0 {
  %4 = alloca ptr, align 8
  %5 = alloca i32, align 4
  %6 = alloca ptr, align 8
  store ptr %0, ptr %4, align 8
  store i32 %1, ptr %5, align 4
  store ptr %2, ptr %6, align 8
  %7 = load ptr, ptr %6, align 8
  %8 = load ptr, ptr %4, align 8
  %9 = load i32, ptr %5, align 4
  %10 = load i32, ptr @hf_fmp_cap, align 4
  %11 = load i32, ptr @ett_capabilities, align 4
  %12 = call ptr @proto_tree_add_bitmask_with_flags(ptr noundef %7, ptr noundef %8, i32 noundef %9, i32 noundef %10, i32 noundef %11, ptr noundef @dissect_fmp_capabilities.capabilities, i32 noundef 0, i32 noundef 1)
  %13 = load i32, ptr %5, align 4
  %14 = add i32 %13, 4
  ret i32 %14
}

; Function Attrs: null_pointer_is_valid sspstrong uwtable
define internal i32 @dissect_fmp_notifyProtocol(ptr noundef %0, i32 noundef %1, ptr noundef %2) #0 {
  %4 = alloca ptr, align 8
  %5 = alloca i32, align 4
  %6 = alloca ptr, align 8
  store ptr %0, ptr %4, align 8
  store i32 %1, ptr %5, align 4
  store ptr %2, ptr %6, align 8
  %7 = load ptr, ptr %6, align 8
  %8 = load i32, ptr @hf_fmp_notify_protocol, align 4
  %9 = load ptr, ptr %4, align 8
  %10 = load i32, ptr %5, align 4
  %11 = call ptr @proto_tree_add_item(ptr noundef %7, i32 noundef %8, ptr noundef %9, i32 noundef %10, i32 noundef 4, i32 noundef 0)
  %12 = load i32, ptr %5, align 4
  %13 = add i32 %12, 4
  ret i32 %13
}

; Function Attrs: null_pointer_is_valid sspstrong uwtable
define internal i32 @dissect_FMP_SessionCreateEx_request(ptr noundef %0, ptr noundef %1, ptr noundef %2, ptr noundef %3) #0 {
  %5 = alloca ptr, align 8
  %6 = alloca ptr, align 8
  %7 = alloca ptr, align 8
  %8 = alloca ptr, align 8
  %9 = alloca i32, align 4
  store ptr %0, ptr %5, align 8
  store ptr %1, ptr %6, align 8
  store ptr %2, ptr %7, align 8
  store ptr %3, ptr %8, align 8
  call void @llvm.lifetime.start.p0(i64 4, ptr %9) #4
  store i32 0, ptr %9, align 4
  %10 = load ptr, ptr %5, align 8
  %11 = load ptr, ptr %7, align 8
  %12 = load i32, ptr @hf_fmp_hostID, align 4
  %13 = load i32, ptr %9, align 4
  %14 = call i32 @dissect_rpc_string(ptr noundef %10, ptr noundef %11, i32 noundef %12, i32 noundef %13, ptr noundef null)
  store i32 %14, ptr %9, align 4
  %15 = load ptr, ptr %5, align 8
  %16 = load i32, ptr %9, align 4
  %17 = load ptr, ptr %6, align 8
  %18 = load ptr, ptr %7, align 8
  %19 = load i32, ptr @hf_fmp_btime, align 4
  %20 = load i32, ptr @hf_fmp_time_sec, align 4
  %21 = load i32, ptr @hf_fmp_time_nsec, align 4
  %22 = call i32 @dissect_fmp_timeval(ptr noundef %15, i32 noundef %16, ptr noundef %17, ptr noundef %18, i32 noundef %19, i32 noundef %20, i32 noundef %21)
  store i32 %22, ptr %9, align 4
  %23 = load ptr, ptr %5, align 8
  %24 = load ptr, ptr %7, align 8
  %25 = load i32, ptr @hf_fmp_notifyPort, align 4
  %26 = load i32, ptr %9, align 4
  %27 = call i32 @dissect_rpc_uint32(ptr noundef %23, ptr noundef %24, i32 noundef %25, i32 noundef %26)
  store i32 %27, ptr %9, align 4
  %28 = load ptr, ptr %5, align 8
  %29 = load i32, ptr %9, align 4
  %30 = load ptr, ptr %7, align 8
  %31 = call i32 @dissect_fmp_notifyProtocol(ptr noundef %28, i32 noundef %29, ptr noundef %30)
  store i32 %31, ptr %9, align 4
  %32 = load ptr, ptr %5, align 8
  %33 = load ptr, ptr %7, align 8
  %34 = load i32, ptr @hf_fmp_os_major, align 4
  %35 = load i32, ptr %9, align 4
  %36 = call i32 @dissect_rpc_uint32(ptr noundef %32, ptr noundef %33, i32 noundef %34, i32 noundef %35)
  store i32 %36, ptr %9, align 4
  %37 = load ptr, ptr %5, align 8
  %38 = load ptr, ptr %7, align 8
  %39 = load i32, ptr @hf_fmp_os_minor, align 4
  %40 = load i32, ptr %9, align 4
  %41 = call i32 @dissect_rpc_uint32(ptr noundef %37, ptr noundef %38, i32 noundef %39, i32 noundef %40)
  store i32 %41, ptr %9, align 4
  %42 = load ptr, ptr %5, align 8
  %43 = load ptr, ptr %7, align 8
  %44 = load i32, ptr @hf_fmp_os_name, align 4
  %45 = load i32, ptr %9, align 4
  %46 = call i32 @dissect_rpc_string(ptr noundef %42, ptr noundef %43, i32 noundef %44, i32 noundef %45, ptr noundef null)
  store i32 %46, ptr %9, align 4
  %47 = load ptr, ptr %5, align 8
  %48 = load ptr, ptr %7, align 8
  %49 = load i32, ptr @hf_fmp_os_patch, align 4
  %50 = load i32, ptr %9, align 4
  %51 = call i32 @dissect_rpc_uint32(ptr noundef %47, ptr noundef %48, i32 noundef %49, i32 noundef %50)
  store i32 %51, ptr %9, align 4
  %52 = load ptr, ptr %5, align 8
  %53 = load ptr, ptr %7, align 8
  %54 = load i32, ptr @hf_fmp_os_build, align 4
  %55 = load i32, ptr %9, align 4
  %56 = call i32 @dissect_rpc_uint32(ptr noundef %52, ptr noundef %53, i32 noundef %54, i32 noundef %55)
  store i32 %56, ptr %9, align 4
  %57 = load ptr, ptr %5, align 8
  %58 = load i32, ptr %9, align 4
  %59 = load ptr, ptr %7, align 8
  %60 = call i32 @dissect_fmp_capabilities(ptr noundef %57, i32 noundef %58, ptr noundef %59)
  store i32 %60, ptr %9, align 4
  %61 = load i32, ptr %9, align 4
  call void @llvm.lifetime.end.p0(i64 4, ptr %9) #4
  ret i32 %61
}