; Function Attrs: null_pointer_is_valid sspstrong uwtable
define internal noundef i32 @dissect_FMP_SessionCreateEx_request(ptr noundef %0, ptr readnone captures(none) %1, ptr noundef %2, ptr readnone captures(none) %3) #0 {
  %5 = load i32, ptr @hf_fmp_hostID, align 4
  %6 = tail call i32 @dissect_rpc_string(ptr noundef %0, ptr noundef %2, i32 noundef %5, i32 noundef 0, ptr noundef null)
  %7 = load i32, ptr @hf_fmp_btime, align 4
  %8 = load i32, ptr @hf_fmp_time_sec, align 4
  %9 = load i32, ptr @hf_fmp_time_nsec, align 4
  %10 = tail call fastcc i32 @dissect_fmp_timeval(ptr noundef %0, i32 noundef %6, ptr noundef %2, i32 noundef %7, i32 noundef %8, i32 noundef %9)
  %11 = load i32, ptr @hf_fmp_notifyPort, align 4
  %12 = tail call i32 @dissect_rpc_uint32(ptr noundef %0, ptr noundef %2, i32 noundef %11, i32 noundef %10)
  %13 = load i32, ptr @hf_fmp_notify_protocol, align 4
  %14 = tail call ptr @proto_tree_add_item(ptr noundef %2, i32 noundef %13, ptr noundef %0, i32 noundef %12, i32 noundef 4, i32 noundef 0)
  %15 = add i32 %12, 4
  %16 = load i32, ptr @hf_fmp_os_major, align 4
  %17 = tail call i32 @dissect_rpc_uint32(ptr noundef %0, ptr noundef %2, i32 noundef %16, i32 noundef %15)
  %18 = load i32, ptr @hf_fmp_os_minor, align 4
  %19 = tail call i32 @dissect_rpc_uint32(ptr noundef %0, ptr noundef %2, i32 noundef %18, i32 noundef %17)
  %20 = load i32, ptr @hf_fmp_os_name, align 4
  %21 = tail call i32 @dissect_rpc_string(ptr noundef %0, ptr noundef %2, i32 noundef %20, i32 noundef %19, ptr noundef null)
  %22 = load i32, ptr @hf_fmp_os_patch, align 4
  %23 = tail call i32 @dissect_rpc_uint32(ptr noundef %0, ptr noundef %2, i32 noundef %22, i32 noundef %21)
  %24 = load i32, ptr @hf_fmp_os_build, align 4
  %25 = tail call i32 @dissect_rpc_uint32(ptr noundef %0, ptr noundef %2, i32 noundef %24, i32 noundef %23)
  %26 = load i32, ptr @hf_fmp_cap, align 4
  %27 = load i32, ptr @ett_capabilities, align 4
  %28 = tail call ptr @proto_tree_add_bitmask_with_flags(ptr noundef %2, ptr noundef %0, i32 noundef %25, i32 noundef %26, i32 noundef %27, ptr noundef nonnull @dissect_fmp_capabilities.capabilities, i32 noundef 0, i32 noundef 1)
  %29 = add i32 %25, 4
  ret i32 %29
}